; ModuleID = 'source-C-CXX/22/665.cpp'
source_filename = "source-C-CXX/22/665.cpp"
target datalayout = "e-m:e-p270:32:32-p271:32:32-p272:64:64-i64:64-f80:128-n8:16:32:64-S128"
target triple = "x86_64-pc-linux-gnu"

%"class.std::ios_base::Init" = type { i8 }
%"class.std::basic_istream" = type { i32 (...)**, i64, %"class.std::basic_ios" }
%"class.std::basic_ios" = type { %"class.std::ios_base", %"class.std::basic_ostream"*, i8, i8, %"class.std::basic_streambuf"*, %"class.std::ctype"*, %"class.std::num_put"*, %"class.std::num_get"* }
%"class.std::ios_base" = type { i32 (...)**, i64, i64, i32, i32, i32, %"struct.std::ios_base::_Callback_list"*, %"struct.std::ios_base::_Words", [8 x %"struct.std::ios_base::_Words"], i32, %"struct.std::ios_base::_Words"*, %"class.std::locale" }
%"struct.std::ios_base::_Callback_list" = type { %"struct.std::ios_base::_Callback_list"*, void (i32, %"class.std::ios_base"*, i32)*, i32, i32 }
%"struct.std::ios_base::_Words" = type { i8*, i64 }
%"class.std::locale" = type { %"class.std::locale::_Impl"* }
%"class.std::locale::_Impl" = type { i32, %"class.std::locale::facet"**, i64, %"class.std::locale::facet"**, i8** }
%"class.std::locale::facet" = type <{ i32 (...)**, i32, [4 x i8] }>
%"class.std::basic_ostream" = type { i32 (...)**, %"class.std::basic_ios" }
%"class.std::basic_streambuf" = type { i32 (...)**, i8*, i8*, i8*, i8*, i8*, i8*, %"class.std::locale" }
%"class.std::ctype" = type <{ %"class.std::locale::facet.base", [4 x i8], %struct.__locale_struct*, i8, [7 x i8], i32*, i32*, i16*, i8, [256 x i8], [256 x i8], i8, [6 x i8] }>
%"class.std::locale::facet.base" = type <{ i32 (...)**, i32 }>
%struct.__locale_struct = type { [13 x %struct.__locale_data*], i16*, i32*, i32*, [13 x i8*] }
%struct.__locale_data = type opaque
%"class.std::num_put" = type { %"class.std::locale::facet.base", [4 x i8] }
%"class.std::num_get" = type { %"class.std::locale::facet.base", [4 x i8] }

@_ZStL8__ioinit = internal global %"class.std::ios_base::Init" zeroinitializer, align 1
@__dso_handle = external hidden global i8
@_ZSt3cin = external global %"class.std::basic_istream", align 8
@_ZSt4cout = external global %"class.std::basic_ostream", align 8
@llvm.global_ctors = appending global [1 x { i32, void ()*, i8* }] [{ i32, void ()*, i8* } { i32 65535, void ()* @_GLOBAL__sub_I_665.cpp, i8* null }]

declare void @_ZNSt8ios_base4InitC1Ev(%"class.std::ios_base::Init"* nonnull align 1 dereferenceable(1)) unnamed_addr #0

; Function Attrs: nounwind
declare void @_ZNSt8ios_base4InitD1Ev(%"class.std::ios_base::Init"* nonnull align 1 dereferenceable(1)) unnamed_addr #1

; Function Attrs: nofree nounwind
declare i32 @__cxa_atexit(void (i8*)*, i8*, i8*) local_unnamed_addr #2

; Function Attrs: mustprogress norecurse sspstrong uwtable
define dso_local i32 @main() local_unnamed_addr #3 {
  %1 = alloca i8, align 1
  %2 = alloca i8, align 1
  %3 = alloca i8, align 1
  %4 = alloca [100 x i32], align 16
  %5 = alloca [100 x [50 x i8]], align 16
  %6 = bitcast [100 x i32]* %4 to i8*
  call void @llvm.lifetime.start.p0i8(i64 400, i8* nonnull %6) #6
  %7 = getelementptr inbounds [100 x [50 x i8]], [100 x [50 x i8]]* %5, i64 0, i64 0, i64 0
  call void @llvm.lifetime.start.p0i8(i64 5000, i8* nonnull %7) #6
  br label %8

8:                                                ; preds = %0, %22
  %9 = phi i64 [ 0, %0 ], [ %23, %22 ]
  br label %10

10:                                               ; preds = %8, %19
  %11 = phi i64 [ 0, %8 ], [ %20, %19 ]
  %12 = tail call i32 @_ZNSi3getEv(%"class.std::basic_istream"* nonnull align 8 dereferenceable(16) @_ZSt3cin)
  %13 = trunc i32 %12 to i8
  %14 = getelementptr inbounds [100 x [50 x i8]], [100 x [50 x i8]]* %5, i64 0, i64 %9, i64 %11
  store i8 %13, i8* %14, align 1, !tbaa !5
  %15 = shl i32 %12, 24
  switch i32 %15, label %19 [
    i32 536870912, label %16
    i32 167772160, label %28
  ]

16:                                               ; preds = %10
  %17 = trunc i64 %11 to i32
  %18 = getelementptr inbounds [100 x i32], [100 x i32]* %4, i64 0, i64 %9
  store i32 %17, i32* %18, align 4, !tbaa !8
  br label %22

19:                                               ; preds = %10
  %20 = add nuw nsw i64 %11, 1
  %21 = icmp eq i64 %20, 50
  br i1 %21, label %22, label %10, !llvm.loop !10

22:                                               ; preds = %19, %16
  %23 = add nuw nsw i64 %9, 1
  %24 = icmp eq i64 %23, 100
  br i1 %24, label %25, label %8, !llvm.loop !12

25:                                               ; preds = %22
  %26 = getelementptr inbounds [100 x i32], [100 x i32]* %4, i64 0, i64 0
  %27 = load i32, i32* %26, align 16
  br label %36

28:                                               ; preds = %10
  %29 = trunc i64 %9 to i32
  %30 = trunc i64 %11 to i32
  %31 = and i64 %9, 4294967295
  %32 = getelementptr inbounds [100 x i32], [100 x i32]* %4, i64 0, i64 %31
  store i32 %30, i32* %32, align 4, !tbaa !8
  %33 = getelementptr inbounds [100 x i32], [100 x i32]* %4, i64 0, i64 0
  %34 = load i32, i32* %33, align 16
  %35 = icmp sgt i32 %29, -1
  br i1 %35, label %36, label %91

36:                                               ; preds = %25, %28
  %37 = phi i32 [ %27, %25 ], [ %34, %28 ]
  %38 = phi i64 [ 100, %25 ], [ %9, %28 ]
  %39 = icmp sgt i32 %37, 0
  %40 = and i64 %38, 4294967295
  br i1 %39, label %41, label %71

41:                                               ; preds = %36
  %42 = zext i32 %37 to i64
  br label %43

43:                                               ; preds = %41, %55
  %44 = phi i64 [ %40, %41 ], [ %56, %55 ]
  %45 = icmp eq i64 %44, 0
  br i1 %45, label %58, label %65

46:                                               ; preds = %48, %65
  call void @llvm.lifetime.start.p0i8(i64 1, i8* nonnull %1)
  store i8 32, i8* %1, align 1, !tbaa !5
  %47 = call nonnull align 8 dereferenceable(8) %"class.std::basic_ostream"* @_ZSt16__ostream_insertIcSt11char_traitsIcEERSt13basic_ostreamIT_T0_ES6_PKS3_l(%"class.std::basic_ostream"* nonnull align 8 dereferenceable(8) @_ZSt4cout, i8* nonnull %1, i64 1)
  call void @llvm.lifetime.end.p0i8(i64 1, i8* nonnull %1)
  br label %55

48:                                               ; preds = %69, %48
  %49 = phi i64 [ 0, %69 ], [ %53, %48 ]
  %50 = getelementptr inbounds [100 x [50 x i8]], [100 x [50 x i8]]* %5, i64 0, i64 %44, i64 %49
  %51 = load i8, i8* %50, align 1, !tbaa !5
  call void @llvm.lifetime.start.p0i8(i64 1, i8* nonnull %2)
  store i8 %51, i8* %2, align 1, !tbaa !5
  %52 = call nonnull align 8 dereferenceable(8) %"class.std::basic_ostream"* @_ZSt16__ostream_insertIcSt11char_traitsIcEERSt13basic_ostreamIT_T0_ES6_PKS3_l(%"class.std::basic_ostream"* nonnull align 8 dereferenceable(8) @_ZSt4cout, i8* nonnull %2, i64 1)
  call void @llvm.lifetime.end.p0i8(i64 1, i8* nonnull %2)
  %53 = add nuw nsw i64 %49, 1
  %54 = icmp eq i64 %53, %70
  br i1 %54, label %46, label %48, !llvm.loop !13

55:                                               ; preds = %58, %46
  %56 = add nsw i64 %44, -1
  %57 = icmp sgt i64 %44, 0
  br i1 %57, label %43, label %91, !llvm.loop !14

58:                                               ; preds = %43, %58
  %59 = phi i64 [ %63, %58 ], [ 0, %43 ]
  %60 = getelementptr inbounds [100 x [50 x i8]], [100 x [50 x i8]]* %5, i64 0, i64 0, i64 %59
  %61 = load i8, i8* %60, align 1, !tbaa !5
  call void @llvm.lifetime.start.p0i8(i64 1, i8* nonnull %3)
  store i8 %61, i8* %3, align 1, !tbaa !5
  %62 = call nonnull align 8 dereferenceable(8) %"class.std::basic_ostream"* @_ZSt16__ostream_insertIcSt11char_traitsIcEERSt13basic_ostreamIT_T0_ES6_PKS3_l(%"class.std::basic_ostream"* nonnull align 8 dereferenceable(8) @_ZSt4cout, i8* nonnull %3, i64 1)
  call void @llvm.lifetime.end.p0i8(i64 1, i8* nonnull %3)
  %63 = add nuw nsw i64 %59, 1
  %64 = icmp eq i64 %63, %42
  br i1 %64, label %55, label %58, !llvm.loop !15

65:                                               ; preds = %43
  %66 = getelementptr inbounds [100 x i32], [100 x i32]* %4, i64 0, i64 %44
  %67 = load i32, i32* %66, align 4, !tbaa !8
  %68 = icmp sgt i32 %67, 0
  br i1 %68, label %69, label %46

69:                                               ; preds = %65
  %70 = zext i32 %67 to i64
  br label %48

71:                                               ; preds = %36, %87
  %72 = phi i64 [ %89, %87 ], [ %40, %36 ]
  %73 = icmp eq i64 %72, 0
  br i1 %73, label %91, label %74

74:                                               ; preds = %71
  %75 = getelementptr inbounds [100 x i32], [100 x i32]* %4, i64 0, i64 %72
  %76 = load i32, i32* %75, align 4, !tbaa !8
  %77 = icmp sgt i32 %76, 0
  br i1 %77, label %78, label %87

78:                                               ; preds = %74
  %79 = zext i32 %76 to i64
  br label %80

80:                                               ; preds = %78, %80
  %81 = phi i64 [ 0, %78 ], [ %85, %80 ]
  %82 = getelementptr inbounds [100 x [50 x i8]], [100 x [50 x i8]]* %5, i64 0, i64 %72, i64 %81
  %83 = load i8, i8* %82, align 1, !tbaa !5
  call void @llvm.lifetime.start.p0i8(i64 1, i8* nonnull %2)
  store i8 %83, i8* %2, align 1, !tbaa !5
  %84 = call nonnull align 8 dereferenceable(8) %"class.std::basic_ostream"* @_ZSt16__ostream_insertIcSt11char_traitsIcEERSt13basic_ostreamIT_T0_ES6_PKS3_l(%"class.std::basic_ostream"* nonnull align 8 dereferenceable(8) @_ZSt4cout, i8* nonnull %2, i64 1)
  call void @llvm.lifetime.end.p0i8(i64 1, i8* nonnull %2)
  %85 = add nuw nsw i64 %81, 1
  %86 = icmp eq i64 %85, %79
  br i1 %86, label %87, label %80, !llvm.loop !13

87:                                               ; preds = %80, %74
  call void @llvm.lifetime.start.p0i8(i64 1, i8* nonnull %1)
  store i8 32, i8* %1, align 1, !tbaa !5
  %88 = call nonnull align 8 dereferenceable(8) %"class.std::basic_ostream"* @_ZSt16__ostream_insertIcSt11char_traitsIcEERSt13basic_ostreamIT_T0_ES6_PKS3_l(%"class.std::basic_ostream"* nonnull align 8 dereferenceable(8) @_ZSt4cout, i8* nonnull %1, i64 1)
  call void @llvm.lifetime.end.p0i8(i64 1, i8* nonnull %1)
  %89 = add nsw i64 %72, -1
  %90 = icmp sgt i64 %72, 0
  br i1 %90, label %71, label %91, !llvm.loop !14

91:                                               ; preds = %71, %87, %55, %28
  call void @llvm.lifetime.end.p0i8(i64 5000, i8* nonnull %7) #6
  call void @llvm.lifetime.end.p0i8(i64 400, i8* nonnull %6) #6
  ret i32 0
}

; Function Attrs: argmemonly mustprogress nofree nosync nounwind willreturn
declare void @llvm.lifetime.start.p0i8(i64 immarg, i8* nocapture) #4

declare i32 @_ZNSi3getEv(%"class.std::basic_istream"* nonnull align 8 dereferenceable(16)) local_unnamed_addr #0

; Function Attrs: argmemonly mustprogress nofree nosync nounwind willreturn
declare void @llvm.lifetime.end.p0i8(i64 immarg, i8* nocapture) #4

declare nonnull align 8 dereferenceable(8) %"class.std::basic_ostream"* @_ZSt16__ostream_insertIcSt11char_traitsIcEERSt13basic_ostreamIT_T0_ES6_PKS3_l(%"class.std::basic_ostream"* nonnull align 8 dereferenceable(8), i8*, i64) local_unnamed_addr #0

; Function Attrs: sspstrong uwtable
define internal void @_GLOBAL__sub_I_665.cpp() #5 section ".text.startup" {
  tail call void @_ZNSt8ios_base4InitC1Ev(%"class.std::ios_base::Init"* nonnull align 1 dereferenceable(1) @_ZStL8__ioinit)
  %1 = tail call i32 @__cxa_atexit(void (i8*)* bitcast (void (%"class.std::ios_base::Init"*)* @_ZNSt8ios_base4InitD1Ev to void (i8*)*), i8* getelementptr inbounds (%"class.std::ios_base::Init", %"class.std::ios_base::Init"* @_ZStL8__ioinit, i64 0, i32 0), i8* nonnull @__dso_handle) #6
  ret void
}


!llvm.module.flags = !{!0, !1, !2, !3}
!llvm.ident = !{!4}

!0 = !{i32 1, !"wchar_size", i32 4}
!1 = !{i32 7, !"PIC Level", i32 2}
!2 = !{i32 7, !"PIE Level", i32 2}
!3 = !{i32 7, !"uwtable", i32 1}
!4 = !{!"clang version 13.0.0"}
!5 = !{!6, !6, i64 0}
!6 = !{!"omnipotent char", !7, i64 0}
!7 = !{!"Simple C++ TBAA"}
!8 = !{!9, !9, i64 0}
!9 = !{!"int", !6, i64 0}
!10 = distinct !{!10, !11}
!11 = !{!"llvm.loop.mustprogress"}
!12 = distinct !{!12, !11}
!13 = distinct !{!13, !11}
!14 = distinct !{!14, !11}
!15 = distinct !{!15, !11}
